Certificate:
    Data:
        Version: 3 (0x2)
        Serial Number:
            57:a0:49:cd:03:c2:06:20:64:44:92:78:93:c9:b5:0e:60:e9:a6:3f
        Signature Algorithm: sha256WithRSAEncryption
        Issuer: C=IT, ST=Italy, O=Politecnico di Torino, CN=Elio/emailAddress=elio@magliari.com
        Validity
            Not Before: Dec  1 22:02:29 2023 GMT
            Not After : Nov 30 22:02:29 2024 GMT
        Subject: C=IT, ST=Italy, O=Politecnico di Torino, CN=Oile/emailAddress=elio@elio.elio
        Subject Public Key Info:
            Public Key Algorithm: rsaEncryption
                Public-Key: (2048 bit)
                Modulus:
                    00:cc:03:12:21:23:f4:1f:e1:f5:79:4e:59:92:cb:
                    6e:ea:fe:42:33:9c:94:58:44:86:29:cb:79:7d:15:
                    88:ed:bd:30:54:a5:f6:02:95:bb:63:a7:fa:06:7b:
                    07:96:84:5b:7b:fb:20:65:f4:b8:7b:5e:2c:fd:3e:
                    ee:cc:04:cd:e5:ab:4f:54:77:3c:73:21:53:25:fc:
                    37:d0:79:38:88:fe:f1:d4:94:07:f3:a6:85:7c:22:
                    46:df:3f:15:2b:d1:d0:98:39:e1:c3:63:69:77:2c:
                    92:a8:92:6f:97:d9:50:ff:77:7e:14:ac:ff:35:93:
                    a0:3a:68:a8:e7:44:e8:b7:19:7f:25:13:f3:54:a6:
                    95:ac:9f:13:10:30:76:2b:e9:88:75:0a:68:31:e9:
                    9b:d2:40:6e:2e:77:c2:92:d4:af:2f:2f:5a:b9:7c:
                    59:c4:89:1f:d1:b8:15:46:46:1d:d5:3a:c0:ce:87:
                    fe:b7:32:68:9d:f1:26:d1:6e:cd:7a:d8:44:39:13:
                    dc:dd:b3:71:e1:31:bf:43:20:16:7e:01:18:e7:d4:
                    9a:24:b1:93:d1:46:f6:76:08:1d:aa:1d:44:3a:85:
                    cc:f7:16:8f:de:7c:8a:8b:36:88:5b:c9:51:14:2c:
                    58:8c:50:cb:90:a4:44:cd:60:16:e6:b5:93:3b:4f:
                    ee:13
                Exponent: 65537 (0x10001)
        X509v3 extensions:
            X509v3 Basic Constraints: 
                CA:FALSE
            X509v3 Subject Key Identifier: 
                57:DB:25:1F:88:53:38:0B:18:1C:FC:07:B0:F5:BD:94:0B:0E:27:76
            X509v3 Authority Key Identifier: 
                B9:43:2D:21:EB:7E:7F:5B:2D:37:2D:EE:54:4C:F5:94:72:F0:7A:2D
    Signature Algorithm: sha256WithRSAEncryption
    Signature Value:
        5f:77:fb:ac:42:78:23:b3:27:91:ea:6f:3d:33:44:f3:1a:4f:
        c1:8b:1e:57:90:70:90:27:a6:6d:87:97:3d:2e:7f:3d:06:75:
        bb:1e:20:4f:ea:1f:e0:eb:a1:55:ae:68:85:20:66:b5:fe:6a:
        c1:6f:d5:56:2f:e1:74:e3:1e:1f:04:2f:c0:f7:6b:42:e6:cb:
        9b:44:b1:d2:17:47:a9:42:47:d6:76:de:7f:30:8e:4e:34:12:
        4a:94:e6:6f:5d:c1:6a:50:4b:0f:93:26:87:9d:c0:f9:bb:c9:
        21:4d:36:eb:e7:3b:d8:03:da:c3:88:91:b4:c4:be:21:23:af:
        27:ea:b5:12:24:c1:1b:c5:68:7b:01:73:69:d7:82:d2:a4:53:
        61:8b:06:de:af:98:78:22:6e:50:b0:34:9e:f0:39:e6:d8:0f:
        cc:b4:f2:9c:86:3f:18:a8:d4:9b:a4:1c:78:fe:a7:7e:38:86:
        fe:ba:ff:db:0c:80:45:f3:0e:1f:7d:a7:c4:c4:48:6b:5f:9e:
        ac:09:06:85:d9:93:ee:58:c4:32:df:b1:89:cb:b9:f7:07:cb:
        8e:2d:06:91:33:1d:39:a1:b1:7d:ca:f4:5c:a7:4b:bc:57:58:
        33:bd:18:35:0a:73:36:7f:2b:ec:55:93:d7:13:aa:04:91:97:
        2f:f3:33:2d
-----BEGIN CERTIFICATE-----
MIIDtDCCApygAwIBAgIUV6BJzQPCBiBkRJJ4k8m1DmDppj8wDQYJKoZIhvcNAQEL
BQAwbjELMAkGA1UEBhMCSVQxDjAMBgNVBAgMBUl0YWx5MR4wHAYDVQQKDBVQb2xp
dGVjbmljbyBkaSBUb3Jpbm8xDTALBgNVBAMMBEVsaW8xIDAeBgkqhkiG9w0BCQEW
EWVsaW9AbWFnbGlhcmkuY29tMB4XDTIzMTIwMTIyMDIyOVoXDTI0MTEzMDIyMDIy
OVowazELMAkGA1UEBhMCSVQxDjAMBgNVBAgMBUl0YWx5MR4wHAYDVQQKDBVQb2xp
dGVjbmljbyBkaSBUb3Jpbm8xDTALBgNVBAMMBE9pbGUxHTAbBgkqhkiG9w0BCQEW
DmVsaW9AZWxpby5lbGlvMIIBIjANBgkqhkiG9w0BAQEFAAOCAQ8AMIIBCgKCAQEA
zAMSISP0H+H1eU5Zkstu6v5CM5yUWESGKct5fRWI7b0wVKX2ApW7Y6f6BnsHloRb
e/sgZfS4e14s/T7uzATN5atPVHc8cyFTJfw30Hk4iP7x1JQH86aFfCJG3z8VK9HQ
mDnhw2NpdyySqJJvl9lQ/3d+FKz/NZOgOmio50Totxl/JRPzVKaVrJ8TEDB2K+mI
dQpoMemb0kBuLnfCktSvLy9auXxZxIkf0bgVRkYd1TrAzof+tzJonfEm0W7NethE
ORPc3bNx4TG/QyAWfgEY59SaJLGT0Ub2dggdqh1EOoXM9xaP3nyKizaIW8lRFCxY
jFDLkKREzWAW5rWTO0/uEwIDAQABo00wSzAJBgNVHRMEAjAAMB0GA1UdDgQWBBRX
2yUfiFM4Cxgc/Aew9b2UCw4ndjAfBgNVHSMEGDAWgBS5Qy0h635/Wy03Le5UTPWU
cvB6LTANBgkqhkiG9w0BAQsFAAOCAQEAX3f7rEJ4I7MnkepvPTNE8xpPwYseV5Bw
kCembYeXPS5/PQZ1ux4gT+of4OuhVa5ohSBmtf5qwW/VVi/hdOMeHwQvwPdrQubL
m0Sx0hdHqUJH1nbefzCOTjQSSpTmb13BalBLD5Mmh53A+bvJIU026+c72APaw4iR
tMS+ISOvJ+q1EiTBG8VoewFzadeC0qRTYYsG3q+YeCJuULA0nvA55tgPzLTynIY/
GKjUm6QceP6nfjiG/rr/2wyARfMOH32nxMRIa1+erAkGhdmT7ljEMt+xicu59wfL
ji0GkTMdOaGxfcr0XKdLvFdYM70YNQpzNn8r7FWT1xOqBJGXL/MzLQ==
-----END CERTIFICATE-----
