Certificate:
    Data:
        Version: 3 (0x2)
        Serial Number:
            41:92:53:92:c7:cd:f5:76:71:b0:10:16:61:ad:39:ae:89:c5:a8:a1
        Signature Algorithm: sha256WithRSAEncryption
        Issuer: C=IT, ST=Some-State, O=Polito, CN=Test CA
        Validity
            Not Before: Oct  7 10:09:07 2020 GMT
            Not After : Oct  7 10:09:07 2021 GMT
        Subject: C=IT, ST=Some-State, O=Polito, CN=myexample.com
        Subject Public Key Info:
            Public Key Algorithm: rsaEncryption
                RSA Public-Key: (2048 bit)
                Modulus:
                    00:b6:ce:c9:5c:7a:be:d8:d2:e9:b6:01:35:50:50:
                    b7:bc:f1:c9:c2:dd:d9:de:d7:1c:76:06:e1:4d:87:
                    0d:b6:00:4d:87:42:7b:16:df:6a:c8:14:57:d8:e1:
                    07:3b:70:a3:81:9a:0a:7c:5e:34:da:1c:ad:f3:3c:
                    f5:4a:c7:82:a4:7f:79:ee:09:88:bc:6a:0d:e6:4f:
                    7c:d5:2c:24:1b:2b:4c:d6:71:a4:1a:25:83:cc:37:
                    f7:ce:d0:d4:fe:4b:5d:c4:23:63:90:81:93:f1:c7:
                    42:e6:c7:fd:96:09:c8:cc:2e:ce:8c:18:7a:d4:08:
                    8b:0e:22:44:07:11:b0:e5:c5:50:ae:47:bc:51:6e:
                    ec:e1:fd:a9:8b:de:15:4f:b4:37:22:b7:ba:4c:67:
                    ad:bb:a2:23:b2:df:88:5f:01:a4:4a:d7:73:07:74:
                    f5:54:9b:5e:0b:67:e8:80:f5:3b:4b:a2:41:86:e5:
                    c0:a7:e5:ff:90:a1:5f:e7:5c:b3:eb:2e:75:08:fe:
                    eb:06:d8:19:7d:34:87:5f:87:db:ad:68:a5:e5:8a:
                    54:a5:dd:c6:42:04:3d:ab:11:b7:12:0e:c5:b6:0c:
                    c7:74:34:f5:07:20:fc:ef:3d:57:8e:34:91:b1:0e:
                    4e:58:6c:58:e3:c9:ba:a7:41:d3:1a:78:e9:51:17:
                    12:99
                Exponent: 65537 (0x10001)
        X509v3 extensions:
            X509v3 Basic Constraints: 
                CA:FALSE
            Netscape Comment: 
                OpenSSL Generated Certificate
            X509v3 Subject Key Identifier: 
                FB:2A:97:D2:54:C4:A2:74:3D:B2:92:A3:76:36:53:C3:F8:D4:9D:54
            X509v3 Authority Key Identifier: 
                keyid:CD:C4:9F:24:89:50:EA:3C:9D:27:A1:01:E6:20:4A:53:AD:96:F3:86

    Signature Algorithm: sha256WithRSAEncryption
         48:7e:e7:1d:ec:b9:fe:98:3f:79:b3:81:52:1e:c7:33:24:ea:
         a0:d0:1b:dc:b9:d2:28:82:67:2c:44:22:47:83:d6:f9:0b:55:
         bc:52:3f:c7:b6:37:2f:e0:23:5e:fc:9f:45:75:0b:05:cb:6b:
         57:37:6a:59:41:d6:29:d2:9a:e0:84:f1:7a:19:e1:b1:7b:d8:
         1a:56:48:6d:e5:21:bb:de:5c:f1:c3:f6:4a:ea:cf:35:66:45:
         54:c9:e2:64:b9:8e:da:95:cf:84:c0:1c:dc:07:59:e6:2f:d3:
         49:22:ef:67:33:89:51:41:22:19:d0:c8:6e:c3:ae:df:64:3a:
         58:dc:06:f7:81:6a:1d:1d:0d:0e:51:6e:d0:94:4d:75:10:63:
         ab:6c:68:6c:bd:34:9d:2a:09:dc:3a:d9:0a:c8:ac:01:11:57:
         34:c1:d4:be:52:81:98:3c:74:82:f9:d4:38:e8:4a:18:cc:41:
         f6:d1:a2:21:27:6d:69:55:34:5a:d8:40:b5:a7:66:ad:13:a6:
         07:5c:00:31:60:54:0d:a1:0a:9f:c6:22:e9:5b:b1:f1:91:6a:
         fc:5d:be:07:39:a5:44:4f:91:ca:7f:f8:be:55:75:f0:f7:75:
         0e:ba:05:90:37:f2:8c:bd:3d:f5:15:34:f3:bf:e6:7f:86:47:
         69:f4:a7:34
-----BEGIN CERTIFICATE-----
MIIDmTCCAoGgAwIBAgIUQZJTksfN9XZxsBAWYa05ronFqKEwDQYJKoZIhvcNAQEL
BQAwRTELMAkGA1UEBhMCSVQxEzARBgNVBAgMClNvbWUtU3RhdGUxDzANBgNVBAoM
BlBvbGl0bzEQMA4GA1UEAwwHVGVzdCBDQTAeFw0yMDEwMDcxMDA5MDdaFw0yMTEw
MDcxMDA5MDdaMEsxCzAJBgNVBAYTAklUMRMwEQYDVQQIDApTb21lLVN0YXRlMQ8w
DQYDVQQKDAZQb2xpdG8xFjAUBgNVBAMMDW15ZXhhbXBsZS5jb20wggEiMA0GCSqG
SIb3DQEBAQUAA4IBDwAwggEKAoIBAQC2zslcer7Y0um2ATVQULe88cnC3dne1xx2
BuFNhw22AE2HQnsW32rIFFfY4Qc7cKOBmgp8XjTaHK3zPPVKx4Kkf3nuCYi8ag3m
T3zVLCQbK0zWcaQaJYPMN/fO0NT+S13EI2OQgZPxx0Lmx/2WCcjMLs6MGHrUCIsO
IkQHEbDlxVCuR7xRbuzh/amL3hVPtDcit7pMZ627oiOy34hfAaRK13MHdPVUm14L
Z+iA9TtLokGG5cCn5f+QoV/nXLPrLnUI/usG2Bl9NIdfh9utaKXlilSl3cZCBD2r
EbcSDsW2DMd0NPUHIPzvPVeONJGxDk5YbFjjybqnQdMaeOlRFxKZAgMBAAGjezB5
MAkGA1UdEwQCMAAwLAYJYIZIAYb4QgENBB8WHU9wZW5TU0wgR2VuZXJhdGVkIENl
cnRpZmljYXRlMB0GA1UdDgQWBBT7KpfSVMSidD2ykqN2NlPD+NSdVDAfBgNVHSME
GDAWgBTNxJ8kiVDqPJ0noQHmIEpTrZbzhjANBgkqhkiG9w0BAQsFAAOCAQEASH7n
Hey5/pg/ebOBUh7HMyTqoNAb3LnSKIJnLEQiR4PW+QtVvFI/x7Y3L+AjXvyfRXUL
BctrVzdqWUHWKdKa4ITxehnhsXvYGlZIbeUhu95c8cP2SurPNWZFVMniZLmO2pXP
hMAc3AdZ5i/TSSLvZzOJUUEiGdDIbsOu32Q6WNwG94FqHR0NDlFu0JRNdRBjq2xo
bL00nSoJ3DrZCsisARFXNMHUvlKBmDx0gvnUOOhKGMxB9tGiISdtaVU0WthAtadm
rROmB1wAMWBUDaEKn8Yi6Vux8ZFq/F2+BzmlRE+Ryn/4vlV18Pd1DroFkDfyjL09
9RU087/mf4ZHafSnNA==
-----END CERTIFICATE-----
