Certificate:
    Data:
        Version: 3 (0x2)
        Serial Number:
            57:a0:49:cd:03:c2:06:20:64:44:92:78:93:c9:b5:0e:60:e9:a6:3e
        Signature Algorithm: sha256WithRSAEncryption
        Issuer: C=IT, ST=Italy, O=Politecnico di Torino, CN=Elio/emailAddress=elio@magliari.com
        Validity
            Not Before: Dec  1 21:05:34 2023 GMT
            Not After : Nov 30 21:05:34 2024 GMT
        Subject: C=IT, ST=Italy, O=Politecnico di Torino, CN=Anuar/emailAddress=anuar@magliari.com
        Subject Public Key Info:
            Public Key Algorithm: rsaEncryption
                Public-Key: (2048 bit)
                Modulus:
                    00:b7:3c:52:f0:71:65:02:a7:2d:0f:95:63:87:95:
                    7d:33:46:16:e0:70:a4:22:ef:ef:5c:aa:7e:b1:57:
                    b6:49:3d:27:c8:54:f3:58:19:55:dd:e2:fb:0e:12:
                    04:dc:91:34:b6:a8:95:52:48:fb:25:c1:d0:a3:5d:
                    3f:c7:6a:20:ac:9d:35:5e:8b:fd:5b:7b:85:21:16:
                    ca:2a:3a:5b:40:91:07:c0:ae:e6:a3:98:f1:1c:3c:
                    3c:4d:11:cc:ab:85:b7:ac:ca:75:5c:96:0a:ec:18:
                    6d:d5:ec:b4:3f:b5:e1:0c:e6:05:a9:fe:a6:4b:e5:
                    e9:0d:3e:ef:63:fd:78:1a:92:6a:62:da:e9:55:a8:
                    c9:a4:fe:22:d0:6e:d1:62:a3:62:9a:94:bb:82:05:
                    8b:21:ea:9e:f1:6c:1b:d0:af:f3:53:f7:f8:42:40:
                    6d:34:92:70:21:38:33:22:98:c0:cb:c4:fe:7a:e6:
                    1a:6c:0e:aa:00:03:c0:43:70:e5:03:ed:c3:42:89:
                    16:e2:c3:e0:e6:c6:46:19:2e:cc:cd:a0:d2:3c:da:
                    68:c0:fd:98:ac:f0:d4:f9:05:4b:2b:8c:09:79:62:
                    0d:4f:32:f1:0c:3c:06:0c:31:8f:e7:25:e5:08:04:
                    6e:8a:35:39:05:c4:8e:fb:4f:3b:ce:68:a8:15:8b:
                    d8:77
                Exponent: 65537 (0x10001)
        X509v3 extensions:
            X509v3 Basic Constraints: 
                CA:FALSE
            X509v3 Subject Key Identifier: 
                C8:25:C7:DE:0A:56:B2:6B:5F:AA:F2:8D:09:3B:F8:6C:6D:69:CA:BC
            X509v3 Authority Key Identifier: 
                B9:43:2D:21:EB:7E:7F:5B:2D:37:2D:EE:54:4C:F5:94:72:F0:7A:2D
    Signature Algorithm: sha256WithRSAEncryption
    Signature Value:
        67:69:f6:39:ad:ae:48:ae:68:61:fe:4a:77:d7:6a:7e:9c:39:
        fe:fd:17:d4:ff:18:e7:6e:d6:2b:73:a2:9c:6f:96:a6:ae:1a:
        25:c0:6c:2a:7a:14:5d:70:97:6f:95:da:43:46:61:9f:3f:0a:
        21:74:e7:ad:6d:bd:dc:5d:29:54:9a:47:45:c5:34:ba:db:a2:
        2e:29:b4:3a:3a:4e:64:65:ac:bb:3e:e7:8f:02:66:ea:5b:4d:
        2f:71:ea:eb:80:7f:84:c3:cb:8a:af:6f:12:e2:9f:fb:66:23:
        59:41:40:5d:dd:42:63:e5:39:f5:15:28:5d:1e:d3:e7:10:bf:
        08:ba:f3:26:96:83:bd:f0:10:49:c9:f7:21:19:58:7f:42:cd:
        6f:04:11:dd:52:5d:e8:d0:1a:e2:7b:87:2f:3a:96:4a:04:b3:
        c0:51:95:f4:8a:1b:4f:a4:0c:16:2f:35:fb:7d:4e:bb:2b:87:
        74:da:6a:64:b0:c8:96:c0:4e:76:ac:b0:75:18:0b:48:32:1a:
        8c:55:02:f4:fb:a8:f2:c5:b0:93:18:ce:35:cb:af:1a:88:02:
        ea:85:02:51:1f:c3:2a:bd:c6:cc:27:29:15:a7:d1:bf:65:71:
        f1:b8:98:f8:b8:0b:68:e6:7b:ea:10:7d:f6:e6:4f:b4:05:09:
        fe:75:e8:bb
-----BEGIN CERTIFICATE-----
MIIDuTCCAqGgAwIBAgIUV6BJzQPCBiBkRJJ4k8m1DmDppj4wDQYJKoZIhvcNAQEL
BQAwbjELMAkGA1UEBhMCSVQxDjAMBgNVBAgMBUl0YWx5MR4wHAYDVQQKDBVQb2xp
dGVjbmljbyBkaSBUb3Jpbm8xDTALBgNVBAMMBEVsaW8xIDAeBgkqhkiG9w0BCQEW
EWVsaW9AbWFnbGlhcmkuY29tMB4XDTIzMTIwMTIxMDUzNFoXDTI0MTEzMDIxMDUz
NFowcDELMAkGA1UEBhMCSVQxDjAMBgNVBAgMBUl0YWx5MR4wHAYDVQQKDBVQb2xp
dGVjbmljbyBkaSBUb3Jpbm8xDjAMBgNVBAMMBUFudWFyMSEwHwYJKoZIhvcNAQkB
FhJhbnVhckBtYWdsaWFyaS5jb20wggEiMA0GCSqGSIb3DQEBAQUAA4IBDwAwggEK
AoIBAQC3PFLwcWUCpy0PlWOHlX0zRhbgcKQi7+9cqn6xV7ZJPSfIVPNYGVXd4vsO
EgTckTS2qJVSSPslwdCjXT/HaiCsnTVei/1be4UhFsoqOltAkQfAruajmPEcPDxN
EcyrhbesynVclgrsGG3V7LQ/teEM5gWp/qZL5ekNPu9j/Xgakmpi2ulVqMmk/iLQ
btFio2KalLuCBYsh6p7xbBvQr/NT9/hCQG00knAhODMimMDLxP565hpsDqoAA8BD
cOUD7cNCiRbiw+DmxkYZLszNoNI82mjA/Zis8NT5BUsrjAl5Yg1PMvEMPAYMMY/n
JeUIBG6KNTkFxI77TzvOaKgVi9h3AgMBAAGjTTBLMAkGA1UdEwQCMAAwHQYDVR0O
BBYEFMglx94KVrJrX6ryjQk7+Gxtacq8MB8GA1UdIwQYMBaAFLlDLSHrfn9bLTct
7lRM9ZRy8HotMA0GCSqGSIb3DQEBCwUAA4IBAQBnafY5ra5Irmhh/kp312p+nDn+
/RfU/xjnbtYrc6Kcb5amrholwGwqehRdcJdvldpDRmGfPwohdOetbb3cXSlUmkdF
xTS626IuKbQ6Ok5kZay7PuePAmbqW00vcerrgH+Ew8uKr28S4p/7ZiNZQUBd3UJj
5Tn1FShdHtPnEL8IuvMmloO98BBJyfchGVh/Qs1vBBHdUl3o0Brie4cvOpZKBLPA
UZX0ihtPpAwWLzX7fU67K4d02mpksMiWwE52rLB1GAtIMhqMVQL0+6jyxbCTGM41
y68aiALqhQJRH8MqvcbMJykVp9G/ZXHxuJj4uAto5nvqEH325k+0BQn+dei7
-----END CERTIFICATE-----
