Certificate:
    Data:
        Version: 3 (0x2)
        Serial Number:
            57:a0:49:cd:03:c2:06:20:64:44:92:78:93:c9:b5:0e:60:e9:a6:3d
        Signature Algorithm: sha256WithRSAEncryption
        Issuer: C=IT, ST=Italy, O=Politecnico di Torino, CN=Elio/emailAddress=elio@magliari.com
        Validity
            Not Before: Dec  1 21:02:57 2023 GMT
            Not After : Nov 30 21:02:57 2026 GMT
        Subject: C=IT, ST=Italy, O=Politecnico di Torino, CN=Elio/emailAddress=elio@magliari.com
        Subject Public Key Info:
            Public Key Algorithm: rsaEncryption
                Public-Key: (2048 bit)
                Modulus:
                    00:e6:fd:5a:12:33:73:44:00:7f:81:96:f7:ac:58:
                    27:e8:fb:0b:53:61:99:43:ae:40:f3:6c:29:44:ec:
                    85:e3:63:ec:53:70:ea:a6:68:23:9b:a7:e4:46:95:
                    20:1b:d1:10:80:2d:60:6e:7a:fb:91:29:83:d4:6e:
                    0b:f5:17:99:4e:9a:c6:71:73:3f:da:e3:5a:0d:fe:
                    51:4e:fd:d7:0f:5b:7e:d7:5e:9f:37:0a:4c:88:0b:
                    fa:22:e0:a0:a2:0e:e2:19:49:10:21:30:29:a5:40:
                    2c:86:41:34:a7:e3:75:06:75:21:73:88:1b:b2:e1:
                    cc:4a:f3:08:09:e4:57:36:15:f7:32:20:d4:da:57:
                    51:e2:1f:e3:b6:6b:3d:6f:04:36:b4:0a:e6:9c:29:
                    14:73:bd:27:0d:14:e6:51:0d:9a:11:c6:25:cd:c8:
                    88:74:55:64:ce:04:af:9a:8f:14:83:9b:b0:09:76:
                    ec:47:9a:30:9d:83:88:28:7a:b0:8c:48:82:26:01:
                    d9:d3:94:3a:74:56:84:0d:dc:b9:d0:f9:11:1c:11:
                    0d:89:0c:8d:ae:e4:9b:76:01:2b:a9:9d:b3:6b:e9:
                    1c:cb:12:8b:fa:1a:4b:d9:dd:a6:aa:f5:8a:d0:cb:
                    34:ed:5d:25:1e:bd:06:0f:31:3a:e2:de:be:90:c1:
                    fb:27
                Exponent: 65537 (0x10001)
        X509v3 extensions:
            X509v3 Subject Key Identifier: 
                B9:43:2D:21:EB:7E:7F:5B:2D:37:2D:EE:54:4C:F5:94:72:F0:7A:2D
            X509v3 Authority Key Identifier: 
                B9:43:2D:21:EB:7E:7F:5B:2D:37:2D:EE:54:4C:F5:94:72:F0:7A:2D
            X509v3 Basic Constraints: critical
                CA:TRUE
    Signature Algorithm: sha256WithRSAEncryption
    Signature Value:
        a1:c2:b1:17:33:43:a5:42:db:a1:da:53:7f:e0:76:18:d9:17:
        bf:50:6f:23:67:48:84:99:8a:94:22:14:1b:65:c5:9f:89:26:
        6b:ae:2c:5c:32:f0:ee:04:ac:ab:1f:3f:a5:d2:3e:ef:e7:d9:
        b1:bb:29:68:02:c1:26:e9:12:c8:8b:a7:a4:ce:92:a2:86:8d:
        3e:c1:0d:23:b2:5e:15:0f:50:ad:21:ac:ed:58:b6:4a:26:5a:
        a5:b8:98:dd:09:33:98:ff:a4:ba:8e:d1:f5:16:e9:2e:c3:32:
        19:30:ab:18:90:6d:cd:01:40:4b:77:77:9b:37:4b:a6:ce:74:
        50:73:a5:ae:01:ab:26:8e:97:5e:b1:1a:0c:c6:dc:ae:a2:9c:
        bd:b1:87:0b:6e:6c:3c:67:12:ac:91:b0:0e:71:aa:26:7d:1c:
        88:57:1f:83:e6:df:4b:8c:aa:3c:f4:6b:df:f8:44:d6:95:a0:
        65:e6:16:a1:ac:e7:cf:cf:22:c2:c2:4b:fe:41:8c:8d:41:73:
        ba:80:9b:2d:2a:82:1e:a2:5a:cd:5e:96:fb:95:33:f5:39:f6:
        41:5e:01:44:80:e6:c0:80:66:1e:42:b0:0a:bb:bc:50:10:f5:
        2e:ee:25:87:c1:7c:11:10:15:30:8d:c6:ed:9c:7b:10:ba:c0:
        38:8f:99:19
-----BEGIN CERTIFICATE-----
MIIDvTCCAqWgAwIBAgIUV6BJzQPCBiBkRJJ4k8m1DmDppj0wDQYJKoZIhvcNAQEL
BQAwbjELMAkGA1UEBhMCSVQxDjAMBgNVBAgMBUl0YWx5MR4wHAYDVQQKDBVQb2xp
dGVjbmljbyBkaSBUb3Jpbm8xDTALBgNVBAMMBEVsaW8xIDAeBgkqhkiG9w0BCQEW
EWVsaW9AbWFnbGlhcmkuY29tMB4XDTIzMTIwMTIxMDI1N1oXDTI2MTEzMDIxMDI1
N1owbjELMAkGA1UEBhMCSVQxDjAMBgNVBAgMBUl0YWx5MR4wHAYDVQQKDBVQb2xp
dGVjbmljbyBkaSBUb3Jpbm8xDTALBgNVBAMMBEVsaW8xIDAeBgkqhkiG9w0BCQEW
EWVsaW9AbWFnbGlhcmkuY29tMIIBIjANBgkqhkiG9w0BAQEFAAOCAQ8AMIIBCgKC
AQEA5v1aEjNzRAB/gZb3rFgn6PsLU2GZQ65A82wpROyF42PsU3Dqpmgjm6fkRpUg
G9EQgC1gbnr7kSmD1G4L9ReZTprGcXM/2uNaDf5RTv3XD1t+116fNwpMiAv6IuCg
og7iGUkQITAppUAshkE0p+N1BnUhc4gbsuHMSvMICeRXNhX3MiDU2ldR4h/jtms9
bwQ2tArmnCkUc70nDRTmUQ2aEcYlzciIdFVkzgSvmo8Ug5uwCXbsR5ownYOIKHqw
jEiCJgHZ05Q6dFaEDdy50PkRHBENiQyNruSbdgErqZ2za+kcyxKL+hpL2d2mqvWK
0Ms07V0lHr0GDzE64t6+kMH7JwIDAQABo1MwUTAdBgNVHQ4EFgQUuUMtIet+f1st
Ny3uVEz1lHLwei0wHwYDVR0jBBgwFoAUuUMtIet+f1stNy3uVEz1lHLwei0wDwYD
VR0TAQH/BAUwAwEB/zANBgkqhkiG9w0BAQsFAAOCAQEAocKxFzNDpULbodpTf+B2
GNkXv1BvI2dIhJmKlCIUG2XFn4kma64sXDLw7gSsqx8/pdI+7+fZsbspaALBJukS
yIunpM6SooaNPsENI7JeFQ9QrSGs7Vi2SiZapbiY3QkzmP+kuo7R9RbpLsMyGTCr
GJBtzQFAS3d3mzdLps50UHOlrgGrJo6XXrEaDMbcrqKcvbGHC25sPGcSrJGwDnGq
Jn0ciFcfg+bfS4yqPPRr3/hE1pWgZeYWoaznz88iwsJL/kGMjUFzuoCbLSqCHqJa
zV6W+5Uz9Tn2QV4BRIDmwIBmHkKwCru8UBD1Lu4lh8F8ERAVMI3G7Zx7ELrAOI+Z
GQ==
-----END CERTIFICATE-----
